; Function Attrs: mustprogress uwtable
define void @_ZNK6icu_7511PluralRules6selectERKNS_6number15FormattedNumberER10UErrorCode(ptr noalias sret(%"class.icu_75::UnicodeString") align 8 %agg.result, ptr nocapture noundef nonnull readonly align 8 dereferenceable(28) %this, ptr noundef nonnull align 8 dereferenceable(20) %number, ptr noundef nonnull align 4 dereferenceable(4) %status) local_unnamed_addr #1 align 2 personality ptr @__gxx_personality_v0 {
entry:
  %dq = alloca %"class.icu_75::number::impl::DecimalQuantity", align 8
  call void @_ZN6icu_756number4impl15DecimalQuantityC1Ev(ptr noundef nonnull align 8 dereferenceable(66) %dq)
  invoke void @_ZNK6icu_756number15FormattedNumber18getDecimalQuantityERNS0_4impl15DecimalQuantityER10UErrorCode(ptr noundef nonnull align 8 dereferenceable(20) %number, ptr noundef nonnull align 8 dereferenceable(66) %dq, ptr noundef nonnull align 4 dereferenceable(4) %status)
          to label %invoke.cont unwind label %lpad

invoke.cont:                                      ; preds = %entry
  %0 = load i32, ptr %status, align 4
  %cmp.i = icmp slt i32 %0, 1
  br i1 %cmp.i, label %if.end, label %if.then

if.then:                                          ; preds = %invoke.cont
  store ptr getelementptr inbounds ({ [13 x ptr] }, ptr @_ZTVN6icu_7513UnicodeStringE, i64 0, i32 0, i64 2), ptr %agg.result, align 8, !alias.scope !22
  %fUnion2.i.i = getelementptr inbounds i8, ptr %agg.result, i64 8
  store i16 2, ptr %fUnion2.i.i, align 8, !alias.scope !22
  invoke void @_ZN6icu_7513UnicodeString10setToBogusEv(ptr noundef nonnull align 8 dereferenceable(64) %agg.result)
          to label %cleanup unwind label %lpad.i

lpad.i:                                           ; preds = %if.then
  %1 = landingpad { ptr, i32 }
          cleanup
  call void @_ZN6icu_7513UnicodeStringD1Ev(ptr noundef nonnull align 8 dereferenceable(64) %agg.result) #25
  br label %lpad.body

lpad:                                             ; preds = %if.end10, %entry
  %2 = landingpad { ptr, i32 }
          cleanup
  br label %lpad.body

lpad.body:                                        ; preds = %lpad, %lpad.i6, %lpad.i
  %eh.lpad-body = phi { ptr, i32 } [ %1, %lpad.i ], [ %2, %lpad ], [ %4, %lpad.i6 ]
  call void @_ZN6icu_756number4impl15DecimalQuantityD1Ev(ptr noundef nonnull align 8 dereferenceable(66) %dq) #25
  resume { ptr, i32 } %eh.lpad-body

if.end:                                           ; preds = %invoke.cont
  %mInternalStatus = getelementptr inbounds i8, ptr %this, i64 24
  %3 = load i32, ptr %mInternalStatus, align 8
  %cmp.i3 = icmp slt i32 %3, 1
  br i1 %cmp.i3, label %if.end10, label %if.then7

if.then7:                                         ; preds = %if.end
  store i32 %3, ptr %status, align 4
  store ptr getelementptr inbounds ({ [13 x ptr] }, ptr @_ZTVN6icu_7513UnicodeStringE, i64 0, i32 0, i64 2), ptr %agg.result, align 8, !alias.scope !25
  %fUnion2.i.i5 = getelementptr inbounds i8, ptr %agg.result, i64 8
  store i16 2, ptr %fUnion2.i.i5, align 8, !alias.scope !25
  invoke void @_ZN6icu_7513UnicodeString10setToBogusEv(ptr noundef nonnull align 8 dereferenceable(64) %agg.result)
          to label %cleanup unwind label %lpad.i6

lpad.i6:                                          ; preds = %if.then7
  %4 = landingpad { ptr, i32 }
          cleanup
  call void @_ZN6icu_7513UnicodeStringD1Ev(ptr noundef nonnull align 8 dereferenceable(64) %agg.result) #25
  br label %lpad.body

if.end10:                                         ; preds = %if.end
  invoke void @_ZNK6icu_7511PluralRules6selectERKNS_13IFixedDecimalE(ptr sret(%"class.icu_75::UnicodeString") align 8 %agg.result, ptr noundef nonnull align 8 dereferenceable(28) %this, ptr noundef nonnull align 8 dereferenceable(8) %dq)
          to label %cleanup unwind label %lpad

cleanup:                                          ; preds = %if.then7, %if.then, %if.end10
  call void @_ZN6icu_756number4impl15DecimalQuantityD1Ev(ptr noundef nonnull align 8 dereferenceable(66) %dq) #25
  ret void
}